target datalayout = "e-m:e-p270:32:32-p271:32:32-p272:64:64-i64:64-i128:128-f80:128-n8:16:32:64-S128"
target triple = "x86_64-pc-linux-gnu"

%class.CrowdToolState = type <{ %struct.SampleToolState, ptr, ptr, ptr, [3 x float], i32, %struct.dtCrowdAgentDebugInfo, ptr, [128 x %"struct.CrowdToolState::AgentTrail"], %class.ValueHistory, %class.ValueHistory, %struct.CrowdToolParams, i8, [7 x i8] }>
%struct.SampleToolState = type { ptr }
%struct.dtCrowdAgentDebugInfo = type { i32, [3 x float], [3 x float], ptr }
%"struct.CrowdToolState::AgentTrail" = type { [192 x float], i32 }
%class.ValueHistory = type { [256 x float], i32 }
%struct.CrowdToolParams = type { i8, i8, i8, i8, i8, i8, i8, i8, i8, i8, i8, i8, i8, i8, i8, i8, i8, i8, float, i8, float }
%class.CrowdTool = type <{ %struct.SampleTool, ptr, ptr, i32, [4 x i8] }>
%struct.SampleTool = type { ptr }

@.str.33 = private unnamed_addr constant [42 x i8] c"LMB: add agent.  Shift+LMB: remove agent.\00", align 1
@.str.34 = private unnamed_addr constant [55 x i8] c"LMB: set move target.  Shift+LMB: adjust set velocity.\00", align 1
@.str.35 = private unnamed_addr constant [58 x i8] c"Setting velocity will move the agents without pathfinder.\00", align 1
@.str.36 = private unnamed_addr constant [19 x i8] c"LMB: select agent.\00", align 1
@.str.37 = private unnamed_addr constant [50 x i8] c"SPACE: Run/Pause simulation.  1: Step simulation.\00", align 1
@.str.38 = private unnamed_addr constant [12 x i8] c"- RUNNING -\00", align 1
@.str.39 = private unnamed_addr constant [11 x i8] c"- PAUSED -\00", align 1

; Function Attrs: mustprogress nounwind uwtable
define linkonce_odr dso_local noundef zeroext i1 @_ZNK14CrowdToolState9isRunningEv(ptr noundef nonnull align 8 dereferenceable(101001) %0) #1 comdat align 2 {
  %2 = alloca ptr, align 8
  store ptr %0, ptr %2, align 8
  %3 = load ptr, ptr %2, align 8
  %4 = getelementptr inbounds %class.CrowdToolState, ptr %3, i32 0, i32 12
  %5 = load i8, ptr %4, align 8
  %6 = trunc i8 %5 to i1
  ret i1 %6
}

; Function Attrs: mustprogress nounwind uwtable
define linkonce_odr dso_local noundef i32 @_Z9imguiRGBAhhhh(i8 noundef zeroext %0, i8 noundef zeroext %1, i8 noundef zeroext %2, i8 noundef zeroext %3) #1 comdat {
  %5 = alloca i8, align 1
  %6 = alloca i8, align 1
  %7 = alloca i8, align 1
  %8 = alloca i8, align 1
  store i8 %0, ptr %5, align 1
  store i8 %1, ptr %6, align 1
  store i8 %2, ptr %7, align 1
  store i8 %3, ptr %8, align 1
  %9 = load i8, ptr %5, align 1
  %10 = zext i8 %9 to i32
  %11 = load i8, ptr %6, align 1
  %12 = zext i8 %11 to i32
  %13 = shl i32 %12, 8
  %14 = or i32 %10, %13
  %15 = load i8, ptr %7, align 1
  %16 = zext i8 %15 to i32
  %17 = shl i32 %16, 16
  %18 = or i32 %14, %17
  %19 = load i8, ptr %8, align 1
  %20 = zext i8 %19 to i32
  %21 = shl i32 %20, 24
  %22 = or i32 %18, %21
  ret i32 %22
}

; Function Attrs: mustprogress nounwind uwtable
define linkonce_odr dso_local void @_Z14rcIgnoreUnusedIPdEvRKT_(ptr noundef nonnull align 8 dereferenceable(8) %0) #1 comdat {
  %2 = alloca ptr, align 8
  store ptr %0, ptr %2, align 8
  ret void
}

; Function Attrs: mustprogress uwtable
define dso_local void @_ZN9CrowdTool19handleRenderOverlayEPdS0_Pi(ptr noundef nonnull align 8 dereferenceable(28) %0, ptr noundef %1, ptr noundef %2, ptr noundef %3) unnamed_addr #0 align 2 {
  %5 = alloca ptr, align 8
  %6 = alloca ptr, align 8
  %7 = alloca ptr, align 8
  %8 = alloca ptr, align 8
  %9 = alloca i32, align 4
  %10 = alloca i32, align 4
  store ptr %0, ptr %5, align 8
  store ptr %1, ptr %6, align 8
  store ptr %2, ptr %7, align 8
  store ptr %3, ptr %8, align 8
  %11 = load ptr, ptr %5, align 8
  call void @_Z14rcIgnoreUnusedIPdEvRKT_(ptr noundef nonnull align 8 dereferenceable(8) %7)
  call void @_Z14rcIgnoreUnusedIPdEvRKT_(ptr noundef nonnull align 8 dereferenceable(8) %6)
  %12 = load ptr, ptr %8, align 8
  %13 = getelementptr inbounds i32, ptr %12, i64 3
  %14 = load i32, ptr %13, align 4
  store i32 %14, ptr %9, align 4
  %15 = load i32, ptr %9, align 4
  %16 = sub nsw i32 %15, 40
  store i32 %16, ptr %10, align 4
  %17 = getelementptr inbounds %class.CrowdTool, ptr %11, i32 0, i32 3
  %18 = load i32, ptr %17, align 8
  %19 = icmp eq i32 %18, 0
  br i1 %19, label %20, label %23

20:                                               ; preds = %4
  %21 = load i32, ptr %10, align 4
  %22 = call noundef i32 @_Z9imguiRGBAhhhh(i8 noundef zeroext -1, i8 noundef zeroext -1, i8 noundef zeroext -1, i8 noundef zeroext -64)
  call void @_Z13imguiDrawTextiiiPKcj(i32 noundef 280, i32 noundef %21, i32 noundef 0, ptr noundef @.str.33, i32 noundef %22)
  br label %43

23:                                               ; preds = %4
  %24 = getelementptr inbounds %class.CrowdTool, ptr %11, i32 0, i32 3
  %25 = load i32, ptr %24, align 8
  %26 = icmp eq i32 %25, 1
  br i1 %26, label %27, label %34

27:                                               ; preds = %23
  %28 = load i32, ptr %10, align 4
  %29 = call noundef i32 @_Z9imguiRGBAhhhh(i8 noundef zeroext -1, i8 noundef zeroext -1, i8 noundef zeroext -1, i8 noundef zeroext -64)
  call void @_Z13imguiDrawTextiiiPKcj(i32 noundef 280, i32 noundef %28, i32 noundef 0, ptr noundef @.str.34, i32 noundef %29)
  %30 = load i32, ptr %10, align 4
  %31 = sub nsw i32 %30, 20
  store i32 %31, ptr %10, align 4
  %32 = load i32, ptr %10, align 4
  %33 = call noundef i32 @_Z9imguiRGBAhhhh(i8 noundef zeroext -1, i8 noundef zeroext -1, i8 noundef zeroext -1, i8 noundef zeroext -64)
  call void @_Z13imguiDrawTextiiiPKcj(i32 noundef 280, i32 noundef %32, i32 noundef 0, ptr noundef @.str.35, i32 noundef %33)
  br label %42

34:                                               ; preds = %23
  %35 = getelementptr inbounds %class.CrowdTool, ptr %11, i32 0, i32 3
  %36 = load i32, ptr %35, align 8
  %37 = icmp eq i32 %36, 2
  br i1 %37, label %38, label %41

38:                                               ; preds = %34
  %39 = load i32, ptr %10, align 4
  %40 = call noundef i32 @_Z9imguiRGBAhhhh(i8 noundef zeroext -1, i8 noundef zeroext -1, i8 noundef zeroext -1, i8 noundef zeroext -64)
  call void @_Z13imguiDrawTextiiiPKcj(i32 noundef 280, i32 noundef %39, i32 noundef 0, ptr noundef @.str.36, i32 noundef %40)
  br label %41

41:                                               ; preds = %38, %34
  br label %42

42:                                               ; preds = %41, %27
  br label %43

43:                                               ; preds = %42, %20
  %44 = load i32, ptr %10, align 4
  %45 = sub nsw i32 %44, 20
  store i32 %45, ptr %10, align 4
  %46 = load i32, ptr %10, align 4
  %47 = call noundef i32 @_Z9imguiRGBAhhhh(i8 noundef zeroext -1, i8 noundef zeroext -1, i8 noundef zeroext -1, i8 noundef zeroext -64)
  call void @_Z13imguiDrawTextiiiPKcj(i32 noundef 280, i32 noundef %46, i32 noundef 0, ptr noundef @.str.37, i32 noundef %47)
  %48 = load i32, ptr %10, align 4
  %49 = sub nsw i32 %48, 20
  store i32 %49, ptr %10, align 4
  %50 = getelementptr inbounds %class.CrowdTool, ptr %11, i32 0, i32 2
  %51 = load ptr, ptr %50, align 8
  %52 = icmp ne ptr %51, null
  br i1 %52, label %53, label %60

53:                                               ; preds = %43
  %54 = getelementptr inbounds %class.CrowdTool, ptr %11, i32 0, i32 2
  %55 = load ptr, ptr %54, align 8
  %56 = call noundef zeroext i1 @_ZNK14CrowdToolState9isRunningEv(ptr noundef nonnull align 8 dereferenceable(101001) %55)
  br i1 %56, label %57, label %60

57:                                               ; preds = %53
  %58 = load i32, ptr %10, align 4
  %59 = call noundef i32 @_Z9imguiRGBAhhhh(i8 noundef zeroext -1, i8 noundef zeroext 32, i8 noundef zeroext 16, i8 noundef zeroext -1)
  call void @_Z13imguiDrawTextiiiPKcj(i32 noundef 280, i32 noundef %58, i32 noundef 0, ptr noundef @.str.38, i32 noundef %59)
  br label %63

60:                                               ; preds = %53, %43
  %61 = load i32, ptr %10, align 4
  %62 = call noundef i32 @_Z9imguiRGBAhhhh(i8 noundef zeroext -1, i8 noundef zeroext -1, i8 noundef zeroext -1, i8 noundef zeroext -128)
  call void @_Z13imguiDrawTextiiiPKcj(i32 noundef 280, i32 noundef %61, i32 noundef 0, ptr noundef @.str.39, i32 noundef %62)
  br label %63

63:                                               ; preds = %60, %57
  ret void
}