; Function Attrs: mustprogress uwtable
define dso_local void @_ZN9CrowdTool19handleRenderOverlayEPdS0_Pi(ptr nocapture noundef nonnull readonly align 8 dereferenceable(28) %0, ptr nocapture readnone %1, ptr nocapture readnone %2, ptr nocapture noundef readonly %3) unnamed_addr #0 align 2 {
  %5 = getelementptr inbounds i8, ptr %3, i64 12
  %6 = load i32, ptr %5, align 4
  %7 = add nsw i32 %6, -40
  %8 = getelementptr inbounds i8, ptr %0, i64 24
  %9 = load i32, ptr %8, align 8
  switch i32 %9, label %14 [
    i32 0, label %10
    i32 1, label %11
    i32 2, label %13
  ]

10:                                               ; preds = %4
  tail call void @_Z13imguiDrawTextiiiPKcj(i32 noundef 280, i32 noundef %7, i32 noundef 0, ptr noundef nonnull @.str.33, i32 noundef -1056964609)
  br label %14

11:                                               ; preds = %4
  tail call void @_Z13imguiDrawTextiiiPKcj(i32 noundef 280, i32 noundef %7, i32 noundef 0, ptr noundef nonnull @.str.34, i32 noundef -1056964609)
  %12 = add nsw i32 %6, -60
  tail call void @_Z13imguiDrawTextiiiPKcj(i32 noundef 280, i32 noundef %12, i32 noundef 0, ptr noundef nonnull @.str.35, i32 noundef -1056964609)
  br label %14

13:                                               ; preds = %4
  tail call void @_Z13imguiDrawTextiiiPKcj(i32 noundef 280, i32 noundef %7, i32 noundef 0, ptr noundef nonnull @.str.36, i32 noundef -1056964609)
  br label %14

14:                                               ; preds = %4, %11, %13, %10
  %.0 = phi i32 [ %7, %10 ], [ %12, %11 ], [ %7, %13 ], [ %7, %4 ]
  %15 = add nsw i32 %.0, -20
  tail call void @_Z13imguiDrawTextiiiPKcj(i32 noundef 280, i32 noundef %15, i32 noundef 0, ptr noundef nonnull @.str.37, i32 noundef -1056964609)
  %16 = add nsw i32 %.0, -40
  %17 = getelementptr inbounds i8, ptr %0, i64 16
  %18 = load ptr, ptr %17, align 8
  %.not = icmp eq ptr %18, null
  br i1 %.not, label %24, label %19

19:                                               ; preds = %14
  %20 = getelementptr inbounds i8, ptr %18, i64 101000
  %21 = load i8, ptr %20, align 8
  %22 = and i8 %21, 1
  %.not14 = icmp eq i8 %22, 0
  br i1 %.not14, label %24, label %23

23:                                               ; preds = %19
  tail call void @_Z13imguiDrawTextiiiPKcj(i32 noundef 280, i32 noundef %16, i32 noundef 0, ptr noundef nonnull @.str.38, i32 noundef -15720193)
  br label %25

24:                                               ; preds = %19, %14
  tail call void @_Z13imguiDrawTextiiiPKcj(i32 noundef 280, i32 noundef %16, i32 noundef 0, ptr noundef nonnull @.str.39, i32 noundef -2130706433)
  br label %25

25:                                               ; preds = %24, %23
  ret void
}